target datalayout = "e-m:e-p270:32:32-p271:32:32-p272:64:64-i64:64-i128:128-f80:128-n8:16:32:64-S128"
target triple = "x86_64-pc-linux-gnu"

%class.ErrorHandler = type <{ i32, i32, i8, i8, i8, i8, i8, i8, [2 x i8] }>
%class.RecVolumes3 = type { [256 x ptr], %class.Array }
%class.Array = type { ptr, i64, i64, i64 }

@ErrHandler = external global %class.ErrorHandler, align 4

; Function Attrs: mustprogress uwtable
define linkonce_odr void @_ZN5ArrayIhE3AddEm(ptr noundef nonnull align 8 dereferenceable(32) %0, i64 noundef %1) #0 comdat align 2 {
  %3 = alloca ptr, align 8
  %4 = alloca i64, align 8
  %5 = alloca i64, align 8
  %6 = alloca i64, align 8
  %7 = alloca ptr, align 8
  store ptr %0, ptr %3, align 8
  store i64 %1, ptr %4, align 8
  %8 = load ptr, ptr %3, align 8
  %9 = load i64, ptr %4, align 8
  %10 = getelementptr inbounds %class.Array, ptr %8, i32 0, i32 1
  %11 = load i64, ptr %10, align 8
  %12 = add i64 %11, %9
  store i64 %12, ptr %10, align 8
  %13 = getelementptr inbounds %class.Array, ptr %8, i32 0, i32 1
  %14 = load i64, ptr %13, align 8
  %15 = getelementptr inbounds %class.Array, ptr %8, i32 0, i32 2
  %16 = load i64, ptr %15, align 8
  %17 = icmp ugt i64 %14, %16
  br i1 %17, label %18, label %63

18:                                               ; preds = %2
  %19 = getelementptr inbounds %class.Array, ptr %8, i32 0, i32 3
  %20 = load i64, ptr %19, align 8
  %21 = icmp ne i64 %20, 0
  br i1 %21, label %22, label %31

22:                                               ; preds = %18
  %23 = getelementptr inbounds %class.Array, ptr %8, i32 0, i32 1
  %24 = load i64, ptr %23, align 8
  %25 = getelementptr inbounds %class.Array, ptr %8, i32 0, i32 3
  %26 = load i64, ptr %25, align 8
  %27 = icmp ugt i64 %24, %26
  br i1 %27, label %28, label %31

28:                                               ; preds = %22
  %29 = getelementptr inbounds %class.Array, ptr %8, i32 0, i32 3
  %30 = load i64, ptr %29, align 8
  call void (ptr, ptr, ...) @_ZN12ErrorHandler13GeneralErrMsgEPKwz(ptr noundef nonnull align 4 dereferenceable(14) @ErrHandler, ptr noundef @.str.14, i64 noundef %30)
  call void @_ZN12ErrorHandler11MemoryErrorEv(ptr noundef nonnull align 4 dereferenceable(14) @ErrHandler)
  br label %31

31:                                               ; preds = %28, %22, %18
  %32 = getelementptr inbounds %class.Array, ptr %8, i32 0, i32 2
  %33 = load i64, ptr %32, align 8
  %34 = getelementptr inbounds %class.Array, ptr %8, i32 0, i32 2
  %35 = load i64, ptr %34, align 8
  %36 = udiv i64 %35, 4
  %37 = add i64 %33, %36
  %38 = add i64 %37, 32
  store i64 %38, ptr %5, align 8
  %39 = getelementptr inbounds %class.Array, ptr %8, i32 0, i32 1
  %40 = load i64, ptr %39, align 8
  %41 = load i64, ptr %5, align 8
  %42 = icmp ugt i64 %40, %41
  br i1 %42, label %43, label %46

43:                                               ; preds = %31
  %44 = getelementptr inbounds %class.Array, ptr %8, i32 0, i32 1
  %45 = load i64, ptr %44, align 8
  br label %48

46:                                               ; preds = %31
  %47 = load i64, ptr %5, align 8
  br label %48

48:                                               ; preds = %46, %43
  %49 = phi i64 [ %45, %43 ], [ %47, %46 ]
  store i64 %49, ptr %6, align 8
  %50 = getelementptr inbounds %class.Array, ptr %8, i32 0, i32 0
  %51 = load ptr, ptr %50, align 8
  %52 = load i64, ptr %6, align 8
  %53 = mul i64 %52, 1
  %54 = call ptr @realloc(ptr noundef %51, i64 noundef %53) #16
  store ptr %54, ptr %7, align 8
  %55 = load ptr, ptr %7, align 8
  %56 = icmp eq ptr %55, null
  br i1 %56, label %57, label %58

57:                                               ; preds = %48
  call void @_ZN12ErrorHandler11MemoryErrorEv(ptr noundef nonnull align 4 dereferenceable(14) @ErrHandler)
  br label %58

58:                                               ; preds = %57, %48
  %59 = load ptr, ptr %7, align 8
  %60 = getelementptr inbounds %class.Array, ptr %8, i32 0, i32 0
  store ptr %59, ptr %60, align 8
  %61 = load i64, ptr %6, align 8
  %62 = getelementptr inbounds %class.Array, ptr %8, i32 0, i32 2
  store i64 %61, ptr %62, align 8
  br label %63

63:                                               ; preds = %58, %2
  ret void
}

; Function Attrs: mustprogress nounwind uwtable
define linkonce_odr void @_ZN5ArrayIhE9CleanDataEv(ptr noundef nonnull align 8 dereferenceable(32) %0) #2 comdat align 2 {
  %2 = alloca ptr, align 8
  store ptr %0, ptr %2, align 8
  %3 = load ptr, ptr %2, align 8
  %4 = getelementptr inbounds %class.Array, ptr %3, i32 0, i32 0
  store ptr null, ptr %4, align 8
  %5 = getelementptr inbounds %class.Array, ptr %3, i32 0, i32 1
  store i64 0, ptr %5, align 8
  %6 = getelementptr inbounds %class.Array, ptr %3, i32 0, i32 2
  store i64 0, ptr %6, align 8
  %7 = getelementptr inbounds %class.Array, ptr %3, i32 0, i32 3
  store i64 0, ptr %7, align 8
  ret void
}

; Function Attrs: mustprogress nounwind uwtable
define linkonce_odr void @_ZN5ArrayIhED2Ev(ptr noundef nonnull align 8 dereferenceable(32) %0) unnamed_addr #2 comdat align 2 {
  %2 = alloca ptr, align 8
  store ptr %0, ptr %2, align 8
  %3 = load ptr, ptr %2, align 8
  %4 = getelementptr inbounds %class.Array, ptr %3, i32 0, i32 0
  %5 = load ptr, ptr %4, align 8
  %6 = icmp ne ptr %5, null
  br i1 %6, label %7, label %10

7:                                                ; preds = %1
  %8 = getelementptr inbounds %class.Array, ptr %3, i32 0, i32 0
  %9 = load ptr, ptr %8, align 8
  call void @free(ptr noundef %9) #11
  br label %10

10:                                               ; preds = %7, %1
  ret void
}

; Function Attrs: mustprogress uwtable
define linkonce_odr void @_ZN5ArrayIhE5AllocEm(ptr noundef nonnull align 8 dereferenceable(32) %0, i64 noundef %1) #0 comdat align 2 {
  %3 = alloca ptr, align 8
  %4 = alloca i64, align 8
  store ptr %0, ptr %3, align 8
  store i64 %1, ptr %4, align 8
  %5 = load ptr, ptr %3, align 8
  %6 = load i64, ptr %4, align 8
  %7 = getelementptr inbounds %class.Array, ptr %5, i32 0, i32 2
  %8 = load i64, ptr %7, align 8
  %9 = icmp ugt i64 %6, %8
  br i1 %9, label %10, label %15

10:                                               ; preds = %2
  %11 = load i64, ptr %4, align 8
  %12 = getelementptr inbounds %class.Array, ptr %5, i32 0, i32 1
  %13 = load i64, ptr %12, align 8
  %14 = sub i64 %11, %13
  call void @_ZN5ArrayIhE3AddEm(ptr noundef nonnull align 8 dereferenceable(32) %5, i64 noundef %14)
  br label %18

15:                                               ; preds = %2
  %16 = load i64, ptr %4, align 8
  %17 = getelementptr inbounds %class.Array, ptr %5, i32 0, i32 1
  store i64 %16, ptr %17, align 8
  br label %18

18:                                               ; preds = %15, %10
  ret void
}

; Function Attrs: mustprogress uwtable
define linkonce_odr void @_ZN5ArrayIhEC2Ev(ptr noundef nonnull align 8 dereferenceable(32) %0) unnamed_addr #0 comdat align 2 {
  %2 = alloca ptr, align 8
  store ptr %0, ptr %2, align 8
  %3 = load ptr, ptr %2, align 8
  call void @_ZN5ArrayIhE9CleanDataEv(ptr noundef nonnull align 8 dereferenceable(32) %3)
  ret void
}

; Function Attrs: mustprogress uwtable
define void @_ZN11RecVolumes3C2EP11CommandDatab(ptr noundef nonnull align 8 dereferenceable(2080) %0, ptr noundef %1, i1 noundef zeroext %2) unnamed_addr #0 align 2 personality ptr @__gxx_personality_v0 {
  %4 = alloca ptr, align 8
  %5 = alloca ptr, align 8
  %6 = alloca i8, align 1
  %7 = alloca ptr, align 8
  %8 = alloca i32, align 4
  store ptr %0, ptr %4, align 8
  store ptr %1, ptr %5, align 8
  %9 = zext i1 %2 to i8
  store i8 %9, ptr %6, align 1
  %10 = load ptr, ptr %4, align 8
  %11 = getelementptr inbounds %class.RecVolumes3, ptr %10, i32 0, i32 1
  call void @_ZN5ArrayIhEC2Ev(ptr noundef nonnull align 8 dereferenceable(32) %11)
  %12 = getelementptr inbounds %class.RecVolumes3, ptr %10, i32 0, i32 0
  %13 = getelementptr inbounds [256 x ptr], ptr %12, i64 0, i64 0
  call void @llvm.memset.p0.i64(ptr align 8 %13, i8 0, i64 2048, i1 false)
  %14 = load i8, ptr %6, align 1
  %15 = trunc i8 %14 to i1
  br i1 %15, label %16, label %17

16:                                               ; preds = %3
  br label %26

17:                                               ; preds = %3
  %18 = getelementptr inbounds %class.RecVolumes3, ptr %10, i32 0, i32 1
  invoke void @_ZN5ArrayIhE5AllocEm(ptr noundef nonnull align 8 dereferenceable(32) %18, i64 noundef 67108864)
          to label %19 unwind label %22

19:                                               ; preds = %17
  %20 = getelementptr inbounds %class.RecVolumes3, ptr %10, i32 0, i32 0
  %21 = getelementptr inbounds [256 x ptr], ptr %20, i64 0, i64 0
  call void @llvm.memset.p0.i64(ptr align 8 %21, i8 0, i64 2048, i1 false)
  br label %26

22:                                               ; preds = %17
  %23 = landingpad { ptr, i32 }
          cleanup
  %24 = extractvalue { ptr, i32 } %23, 0
  store ptr %24, ptr %7, align 8
  %25 = extractvalue { ptr, i32 } %23, 1
  store i32 %25, ptr %8, align 4
  call void @_ZN5ArrayIhED2Ev(ptr noundef nonnull align 8 dereferenceable(32) %11) #11
  br label %27

26:                                               ; preds = %19, %16
  ret void

27:                                               ; preds = %22
  %28 = load ptr, ptr %7, align 8
  %29 = load i32, ptr %8, align 4
  %30 = insertvalue { ptr, i32 } poison, ptr %28, 0
  %31 = insertvalue { ptr, i32 } %30, i32 %29, 1
  resume { ptr, i32 } %31
}