; Function Attrs: mustprogress uwtable
define void @_ZN11RecVolumes3C2EP11CommandDatab(ptr nocapture noundef nonnull align 8 dereferenceable(2080) %0, ptr nocapture readnone %1, i1 noundef zeroext %2) unnamed_addr #0 align 2 personality ptr @__gxx_personality_v0 {
  %4 = getelementptr inbounds i8, ptr %0, i64 2048
  tail call void @llvm.memset.p0.i64(ptr noundef nonnull align 8 dereferenceable(2080) %0, i8 0, i64 2080, i1 false)
  br i1 %2, label %14, label %5

5:                                                ; preds = %3
  %6 = getelementptr inbounds i8, ptr %0, i64 2064
  %7 = getelementptr inbounds i8, ptr %0, i64 2056
  store i64 67108864, ptr %7, align 8
  %malloc = tail call dereferenceable_or_null(67108864) ptr @malloc(i64 67108864)
  %8 = icmp eq ptr %malloc, null
  br i1 %8, label %9, label %_ZN5ArrayIhE5AllocEm.exit

9:                                                ; preds = %5
  invoke void @_ZN12ErrorHandler11MemoryErrorEv(ptr noundef nonnull align 4 dereferenceable(14) @ErrHandler)
          to label %_ZN5ArrayIhE5AllocEm.exit unwind label %10

_ZN5ArrayIhE5AllocEm.exit:                        ; preds = %5, %9
  store ptr %malloc, ptr %4, align 8
  store i64 67108864, ptr %6, align 8
  tail call void @llvm.memset.p0.i64(ptr noundef nonnull align 8 dereferenceable(2048) %0, i8 0, i64 2048, i1 false)
  br label %14

10:                                               ; preds = %9
  %11 = landingpad { ptr, i32 }
          cleanup
  %12 = load ptr, ptr %4, align 8
  %.not.i = icmp eq ptr %12, null
  br i1 %.not.i, label %_ZN5ArrayIhED2Ev.exit, label %13

13:                                               ; preds = %10
  tail call void @free(ptr noundef nonnull %12) #14
  br label %_ZN5ArrayIhED2Ev.exit

_ZN5ArrayIhED2Ev.exit:                            ; preds = %10, %13
  resume { ptr, i32 } %11

14:                                               ; preds = %3, %_ZN5ArrayIhE5AllocEm.exit
  ret void
}